
vmlinux:     file format elf64-littleriscv


Disassembly of section .text:

0000000080200000 <_skernel>:
    80200000:	00005117          	auipc	sp,0x5
    80200004:	00010113          	mv	sp,sp
    80200008:	ff810113          	addi	sp,sp,-8 # 80204ff8 <_sbss+0xff8>
    8020000c:	00a13023          	sd	a0,0(sp)
    80200010:	00000517          	auipc	a0,0x0
    80200014:	0d850513          	addi	a0,a0,216 # 802000e8 <_traps>
    80200018:	10551073          	csrw	stvec,a0
    8020001c:	02000513          	li	a0,32
    80200020:	10451073          	csrw	sie,a0
    80200024:	00013503          	ld	a0,0(sp)
    80200028:	00810113          	addi	sp,sp,8
    8020002c:	1ec000ef          	jal	ra,80200218 <clock_set_next_event>
    80200030:	ff810113          	addi	sp,sp,-8
    80200034:	00a13023          	sd	a0,0(sp)
    80200038:	00200513          	li	a0,2
    8020003c:	10051073          	csrw	sstatus,a0
    80200040:	00013503          	ld	a0,0(sp)
    80200044:	00810113          	addi	sp,sp,8
    80200048:	334000ef          	jal	ra,8020037c <mm_init>
    8020004c:	3cc000ef          	jal	ra,80200418 <task_init>
    80200050:	3c10006f          	j	80200c10 <start_kernel>
	...

0000000080200060 <__dummy>:
    80200060:	00000517          	auipc	a0,0x0
    80200064:	4ac50513          	addi	a0,a0,1196 # 8020050c <dummy>
    80200068:	14151073          	csrw	sepc,a0
    8020006c:	10200073          	sret
    80200070:	00000033          	add	zero,zero,zero

0000000080200074 <__switch_to>:
    80200074:	02153423          	sd	ra,40(a0)
    80200078:	02253823          	sd	sp,48(a0)
    8020007c:	02853c23          	sd	s0,56(a0)
    80200080:	04953023          	sd	s1,64(a0)
    80200084:	05253423          	sd	s2,72(a0)
    80200088:	05353823          	sd	s3,80(a0)
    8020008c:	05453c23          	sd	s4,88(a0)
    80200090:	07553023          	sd	s5,96(a0)
    80200094:	07653423          	sd	s6,104(a0)
    80200098:	07753823          	sd	s7,112(a0)
    8020009c:	07853c23          	sd	s8,120(a0)
    802000a0:	09953023          	sd	s9,128(a0)
    802000a4:	09a53423          	sd	s10,136(a0)
    802000a8:	09b53823          	sd	s11,144(a0)
    802000ac:	0285b083          	ld	ra,40(a1)
    802000b0:	0305b103          	ld	sp,48(a1)
    802000b4:	0385b403          	ld	s0,56(a1)
    802000b8:	0405b483          	ld	s1,64(a1)
    802000bc:	0485b903          	ld	s2,72(a1)
    802000c0:	0505b983          	ld	s3,80(a1)
    802000c4:	0585ba03          	ld	s4,88(a1)
    802000c8:	0605ba83          	ld	s5,96(a1)
    802000cc:	0685bb03          	ld	s6,104(a1)
    802000d0:	0705bb83          	ld	s7,112(a1)
    802000d4:	0785bc03          	ld	s8,120(a1)
    802000d8:	0805bc83          	ld	s9,128(a1)
    802000dc:	0885bd03          	ld	s10,136(a1)
    802000e0:	0905bd83          	ld	s11,144(a1)
    802000e4:	00008067          	ret

00000000802000e8 <_traps>:
    802000e8:	f0810113          	addi	sp,sp,-248
    802000ec:	ff810113          	addi	sp,sp,-8
    802000f0:	0e013c23          	sd	zero,248(sp)
    802000f4:	0e113823          	sd	ra,240(sp)
    802000f8:	0e313423          	sd	gp,232(sp)
    802000fc:	0e413023          	sd	tp,224(sp)
    80200100:	0c513c23          	sd	t0,216(sp)
    80200104:	0c613823          	sd	t1,208(sp)
    80200108:	0c713423          	sd	t2,200(sp)
    8020010c:	0c813023          	sd	s0,192(sp)
    80200110:	0a913c23          	sd	s1,184(sp)
    80200114:	0aa13823          	sd	a0,176(sp)
    80200118:	0ab13423          	sd	a1,168(sp)
    8020011c:	0ac13023          	sd	a2,160(sp)
    80200120:	08d13c23          	sd	a3,152(sp)
    80200124:	08e13823          	sd	a4,144(sp)
    80200128:	08f13423          	sd	a5,136(sp)
    8020012c:	09013023          	sd	a6,128(sp)
    80200130:	07113c23          	sd	a7,120(sp)
    80200134:	07213823          	sd	s2,112(sp)
    80200138:	07313423          	sd	s3,104(sp)
    8020013c:	07413023          	sd	s4,96(sp)
    80200140:	05513c23          	sd	s5,88(sp)
    80200144:	05613823          	sd	s6,80(sp)
    80200148:	05713423          	sd	s7,72(sp)
    8020014c:	05813023          	sd	s8,64(sp)
    80200150:	03913c23          	sd	s9,56(sp)
    80200154:	03a13823          	sd	s10,48(sp)
    80200158:	03b13423          	sd	s11,40(sp)
    8020015c:	03c13023          	sd	t3,32(sp)
    80200160:	01d13c23          	sd	t4,24(sp)
    80200164:	01e13823          	sd	t5,16(sp)
    80200168:	01f13423          	sd	t6,8(sp)
    8020016c:	14102573          	csrr	a0,sepc
    80200170:	00a13023          	sd	a0,0(sp)
    80200174:	14202573          	csrr	a0,scause
    80200178:	141025f3          	csrr	a1,sepc
    8020017c:	265000ef          	jal	ra,80200be0 <trap_handler>
    80200180:	00013503          	ld	a0,0(sp)
    80200184:	14151073          	csrw	sepc,a0
    80200188:	0f813003          	ld	zero,248(sp)
    8020018c:	0f013083          	ld	ra,240(sp)
    80200190:	0e813183          	ld	gp,232(sp)
    80200194:	0e013203          	ld	tp,224(sp)
    80200198:	0d813283          	ld	t0,216(sp)
    8020019c:	0d013303          	ld	t1,208(sp)
    802001a0:	0c813383          	ld	t2,200(sp)
    802001a4:	0c013403          	ld	s0,192(sp)
    802001a8:	0b813483          	ld	s1,184(sp)
    802001ac:	0b013503          	ld	a0,176(sp)
    802001b0:	0a813583          	ld	a1,168(sp)
    802001b4:	0a013603          	ld	a2,160(sp)
    802001b8:	09813683          	ld	a3,152(sp)
    802001bc:	09013703          	ld	a4,144(sp)
    802001c0:	08813783          	ld	a5,136(sp)
    802001c4:	08013803          	ld	a6,128(sp)
    802001c8:	07813883          	ld	a7,120(sp)
    802001cc:	07013903          	ld	s2,112(sp)
    802001d0:	06813983          	ld	s3,104(sp)
    802001d4:	06013a03          	ld	s4,96(sp)
    802001d8:	05813a83          	ld	s5,88(sp)
    802001dc:	05013b03          	ld	s6,80(sp)
    802001e0:	04813b83          	ld	s7,72(sp)
    802001e4:	04013c03          	ld	s8,64(sp)
    802001e8:	03813c83          	ld	s9,56(sp)
    802001ec:	03013d03          	ld	s10,48(sp)
    802001f0:	02813d83          	ld	s11,40(sp)
    802001f4:	02013e03          	ld	t3,32(sp)
    802001f8:	01813e83          	ld	t4,24(sp)
    802001fc:	01013f03          	ld	t5,16(sp)
    80200200:	00813f83          	ld	t6,8(sp)
    80200204:	0f810113          	addi	sp,sp,248
    80200208:	00810113          	addi	sp,sp,8
    8020020c:	10200073          	sret

0000000080200210 <get_cycles>:
    80200210:	c0102573          	rdtime	a0
    80200214:	00008067          	ret

0000000080200218 <clock_set_next_event>:
    80200218:	ff010113          	addi	sp,sp,-16
    8020021c:	00113423          	sd	ra,8(sp)
    80200220:	00813023          	sd	s0,0(sp)
    80200224:	c0102473          	rdtime	s0
    80200228:	00003797          	auipc	a5,0x3
    8020022c:	dd87b783          	ld	a5,-552(a5) # 80203000 <TIMECLOCK>
    80200230:	00002517          	auipc	a0,0x2
    80200234:	dd050513          	addi	a0,a0,-560 # 80202000 <_srodata>
    80200238:	00f40433          	add	s0,s0,a5
    8020023c:	231000ef          	jal	ra,80200c6c <printk>
    80200240:	00040613          	mv	a2,s0
    80200244:	00013403          	ld	s0,0(sp)
    80200248:	00813083          	ld	ra,8(sp)
    8020024c:	00000893          	li	a7,0
    80200250:	00000813          	li	a6,0
    80200254:	00000793          	li	a5,0
    80200258:	00000713          	li	a4,0
    8020025c:	00000693          	li	a3,0
    80200260:	00000593          	li	a1,0
    80200264:	00000513          	li	a0,0
    80200268:	01010113          	addi	sp,sp,16
    8020026c:	10d0006f          	j	80200b78 <sbi_ecall>

0000000080200270 <kalloc>:
    80200270:	ff010113          	addi	sp,sp,-16
    80200274:	00006797          	auipc	a5,0x6
    80200278:	d5478793          	addi	a5,a5,-684 # 80205fc8 <kmem>
    8020027c:	00813023          	sd	s0,0(sp)
    80200280:	0007b403          	ld	s0,0(a5)
    80200284:	00113423          	sd	ra,8(sp)
    80200288:	00001637          	lui	a2,0x1
    8020028c:	00043703          	ld	a4,0(s0)
    80200290:	00040513          	mv	a0,s0
    80200294:	00000593          	li	a1,0
    80200298:	00e7b023          	sd	a4,0(a5)
    8020029c:	791000ef          	jal	ra,8020122c <memset>
    802002a0:	00813083          	ld	ra,8(sp)
    802002a4:	00040513          	mv	a0,s0
    802002a8:	00013403          	ld	s0,0(sp)
    802002ac:	01010113          	addi	sp,sp,16
    802002b0:	00008067          	ret

00000000802002b4 <kfree>:
    802002b4:	ff010113          	addi	sp,sp,-16
    802002b8:	fffff7b7          	lui	a5,0xfffff
    802002bc:	00813023          	sd	s0,0(sp)
    802002c0:	00f57433          	and	s0,a0,a5
    802002c4:	00040513          	mv	a0,s0
    802002c8:	00001637          	lui	a2,0x1
    802002cc:	00000593          	li	a1,0
    802002d0:	00113423          	sd	ra,8(sp)
    802002d4:	759000ef          	jal	ra,8020122c <memset>
    802002d8:	00006797          	auipc	a5,0x6
    802002dc:	cf078793          	addi	a5,a5,-784 # 80205fc8 <kmem>
    802002e0:	0007b703          	ld	a4,0(a5)
    802002e4:	00813083          	ld	ra,8(sp)
    802002e8:	00e43023          	sd	a4,0(s0)
    802002ec:	0087b023          	sd	s0,0(a5)
    802002f0:	00013403          	ld	s0,0(sp)
    802002f4:	01010113          	addi	sp,sp,16
    802002f8:	00008067          	ret

00000000802002fc <kfreerange>:
    802002fc:	000017b7          	lui	a5,0x1
    80200300:	fe010113          	addi	sp,sp,-32
    80200304:	fff78713          	addi	a4,a5,-1 # fff <_skernel-0x801ff001>
    80200308:	00813823          	sd	s0,16(sp)
    8020030c:	00e50433          	add	s0,a0,a4
    80200310:	fffff737          	lui	a4,0xfffff
    80200314:	00e47433          	and	s0,s0,a4
    80200318:	00113c23          	sd	ra,24(sp)
    8020031c:	00913423          	sd	s1,8(sp)
    80200320:	01213023          	sd	s2,0(sp)
    80200324:	00f407b3          	add	a5,s0,a5
    80200328:	02f5ee63          	bltu	a1,a5,80200364 <kfreerange+0x68>
    8020032c:	00058913          	mv	s2,a1
    80200330:	00006497          	auipc	s1,0x6
    80200334:	c9848493          	addi	s1,s1,-872 # 80205fc8 <kmem>
    80200338:	00040513          	mv	a0,s0
    8020033c:	00001637          	lui	a2,0x1
    80200340:	00000593          	li	a1,0
    80200344:	6e9000ef          	jal	ra,8020122c <memset>
    80200348:	0004b703          	ld	a4,0(s1)
    8020034c:	000017b7          	lui	a5,0x1
    80200350:	00e43023          	sd	a4,0(s0)
    80200354:	0084b023          	sd	s0,0(s1)
    80200358:	00f40433          	add	s0,s0,a5
    8020035c:	00f407b3          	add	a5,s0,a5
    80200360:	fcf97ce3          	bgeu	s2,a5,80200338 <kfreerange+0x3c>
    80200364:	01813083          	ld	ra,24(sp)
    80200368:	01013403          	ld	s0,16(sp)
    8020036c:	00813483          	ld	s1,8(sp)
    80200370:	00013903          	ld	s2,0(sp)
    80200374:	02010113          	addi	sp,sp,32
    80200378:	00008067          	ret

000000008020037c <mm_init>:
    8020037c:	fe010113          	addi	sp,sp,-32
    80200380:	fffff7b7          	lui	a5,0xfffff
    80200384:	00813823          	sd	s0,16(sp)
    80200388:	00007417          	auipc	s0,0x7
    8020038c:	c3f40413          	addi	s0,s0,-961 # 80206fc7 <t+0xfe3>
    80200390:	00f47433          	and	s0,s0,a5
    80200394:	01100713          	li	a4,17
    80200398:	000017b7          	lui	a5,0x1
    8020039c:	00113c23          	sd	ra,24(sp)
    802003a0:	00913423          	sd	s1,8(sp)
    802003a4:	01213023          	sd	s2,0(sp)
    802003a8:	00f407b3          	add	a5,s0,a5
    802003ac:	01b71713          	slli	a4,a4,0x1b
    802003b0:	04f76463          	bltu	a4,a5,802003f8 <mm_init+0x7c>
    802003b4:	00088937          	lui	s2,0x88
    802003b8:	fff90913          	addi	s2,s2,-1 # 87fff <_skernel-0x80178001>
    802003bc:	00c91913          	slli	s2,s2,0xc
    802003c0:	40890933          	sub	s2,s2,s0
    802003c4:	00f90933          	add	s2,s2,a5
    802003c8:	00006497          	auipc	s1,0x6
    802003cc:	c0048493          	addi	s1,s1,-1024 # 80205fc8 <kmem>
    802003d0:	00040513          	mv	a0,s0
    802003d4:	00001637          	lui	a2,0x1
    802003d8:	00000593          	li	a1,0
    802003dc:	651000ef          	jal	ra,8020122c <memset>
    802003e0:	0004b783          	ld	a5,0(s1)
    802003e4:	00f43023          	sd	a5,0(s0)
    802003e8:	000017b7          	lui	a5,0x1
    802003ec:	0084b023          	sd	s0,0(s1)
    802003f0:	00f40433          	add	s0,s0,a5
    802003f4:	fc891ee3          	bne	s2,s0,802003d0 <mm_init+0x54>
    802003f8:	01013403          	ld	s0,16(sp)
    802003fc:	01813083          	ld	ra,24(sp)
    80200400:	00813483          	ld	s1,8(sp)
    80200404:	00013903          	ld	s2,0(sp)
    80200408:	00002517          	auipc	a0,0x2
    8020040c:	c1050513          	addi	a0,a0,-1008 # 80202018 <_srodata+0x18>
    80200410:	02010113          	addi	sp,sp,32
    80200414:	0590006f          	j	80200c6c <printk>

0000000080200418 <task_init>:
    80200418:	fc010113          	addi	sp,sp,-64
    8020041c:	02913423          	sd	s1,40(sp)
    80200420:	03213023          	sd	s2,32(sp)
    80200424:	01313c23          	sd	s3,24(sp)
    80200428:	01413823          	sd	s4,16(sp)
    8020042c:	01513423          	sd	s5,8(sp)
    80200430:	01613023          	sd	s6,0(sp)
    80200434:	02113c23          	sd	ra,56(sp)
    80200438:	02813823          	sd	s0,48(sp)
    8020043c:	00005497          	auipc	s1,0x5
    80200440:	bc448493          	addi	s1,s1,-1084 # 80205000 <task>
    80200444:	e2dff0ef          	jal	ra,80200270 <kalloc>
    80200448:	00006797          	auipc	a5,0x6
    8020044c:	b8a7b823          	sd	a0,-1136(a5) # 80205fd8 <idle>
    80200450:	00053423          	sd	zero,8(a0)
    80200454:	00053823          	sd	zero,16(a0)
    80200458:	00053c23          	sd	zero,24(a0)
    8020045c:	02053023          	sd	zero,32(a0)
    80200460:	00006797          	auipc	a5,0x6
    80200464:	b6a7b823          	sd	a0,-1168(a5) # 80205fd0 <current>
    80200468:	00a4b023          	sd	a0,0(s1)
    8020046c:	00000997          	auipc	s3,0x0
    80200470:	bf498993          	addi	s3,s3,-1036 # 80200060 <__dummy>
    80200474:	00100913          	li	s2,1
    80200478:	00002b17          	auipc	s6,0x2
    8020047c:	bb8b0b13          	addi	s6,s6,-1096 # 80202030 <_srodata+0x30>
    80200480:	00001ab7          	lui	s5,0x1
    80200484:	00500a13          	li	s4,5
    80200488:	de9ff0ef          	jal	ra,80200270 <kalloc>
    8020048c:	00a4b423          	sd	a0,8(s1)
    80200490:	00053423          	sd	zero,8(a0)
    80200494:	00053823          	sd	zero,16(a0)
    80200498:	00050413          	mv	s0,a0
    8020049c:	421000ef          	jal	ra,802010bc <rand>
    802004a0:	0084b783          	ld	a5,8(s1)
    802004a4:	00a43c23          	sd	a0,24(s0)
    802004a8:	0009059b          	sext.w	a1,s2
    802004ac:	0187b603          	ld	a2,24(a5)
    802004b0:	0327b023          	sd	s2,32(a5)
    802004b4:	0337b423          	sd	s3,40(a5)
    802004b8:	00098693          	mv	a3,s3
    802004bc:	000b0513          	mv	a0,s6
    802004c0:	7ac000ef          	jal	ra,80200c6c <printk>
    802004c4:	0084b783          	ld	a5,8(s1)
    802004c8:	00190913          	addi	s2,s2,1
    802004cc:	00848493          	addi	s1,s1,8
    802004d0:	01578733          	add	a4,a5,s5
    802004d4:	02e7b823          	sd	a4,48(a5)
    802004d8:	fb4918e3          	bne	s2,s4,80200488 <task_init+0x70>
    802004dc:	03013403          	ld	s0,48(sp)
    802004e0:	03813083          	ld	ra,56(sp)
    802004e4:	02813483          	ld	s1,40(sp)
    802004e8:	02013903          	ld	s2,32(sp)
    802004ec:	01813983          	ld	s3,24(sp)
    802004f0:	01013a03          	ld	s4,16(sp)
    802004f4:	00813a83          	ld	s5,8(sp)
    802004f8:	00013b03          	ld	s6,0(sp)
    802004fc:	00002517          	auipc	a0,0x2
    80200500:	b5450513          	addi	a0,a0,-1196 # 80202050 <_srodata+0x50>
    80200504:	04010113          	addi	sp,sp,64
    80200508:	7640006f          	j	80200c6c <printk>

000000008020050c <dummy>:
    8020050c:	fc010113          	addi	sp,sp,-64
    80200510:	01513423          	sd	s5,8(sp)
    80200514:	3b9adab7          	lui	s5,0x3b9ad
    80200518:	02813823          	sd	s0,48(sp)
    8020051c:	02913423          	sd	s1,40(sp)
    80200520:	03213023          	sd	s2,32(sp)
    80200524:	01313c23          	sd	s3,24(sp)
    80200528:	01413823          	sd	s4,16(sp)
    8020052c:	02113c23          	sd	ra,56(sp)
    80200530:	fff00413          	li	s0,-1
    80200534:	00000493          	li	s1,0
    80200538:	00006917          	auipc	s2,0x6
    8020053c:	a9890913          	addi	s2,s2,-1384 # 80205fd0 <current>
    80200540:	fff00a13          	li	s4,-1
    80200544:	a07a8a93          	addi	s5,s5,-1529 # 3b9aca07 <_skernel-0x448535f9>
    80200548:	00002997          	auipc	s3,0x2
    8020054c:	b2098993          	addi	s3,s3,-1248 # 80202068 <_srodata+0x68>
    80200550:	00148793          	addi	a5,s1,1
    80200554:	00098513          	mv	a0,s3
    80200558:	01440863          	beq	s0,s4,80200568 <dummy+0x5c>
    8020055c:	00093703          	ld	a4,0(s2)
    80200560:	01073703          	ld	a4,16(a4) # fffffffffffff010 <t+0xffffffff7fdf902c>
    80200564:	fe8706e3          	beq	a4,s0,80200550 <dummy+0x44>
    80200568:	0357f4b3          	remu	s1,a5,s5
    8020056c:	00093783          	ld	a5,0(s2)
    80200570:	0207b583          	ld	a1,32(a5)
    80200574:	0107a403          	lw	s0,16(a5)
    80200578:	00048613          	mv	a2,s1
    8020057c:	6f0000ef          	jal	ra,80200c6c <printk>
    80200580:	00148793          	addi	a5,s1,1
    80200584:	00098513          	mv	a0,s3
    80200588:	fd441ae3          	bne	s0,s4,8020055c <dummy+0x50>
    8020058c:	fddff06f          	j	80200568 <dummy+0x5c>

0000000080200590 <switch_to>:
    80200590:	fe010113          	addi	sp,sp,-32
    80200594:	00913423          	sd	s1,8(sp)
    80200598:	00006497          	auipc	s1,0x6
    8020059c:	a3848493          	addi	s1,s1,-1480 # 80205fd0 <current>
    802005a0:	0004b783          	ld	a5,0(s1)
    802005a4:	01053703          	ld	a4,16(a0)
    802005a8:	02053683          	ld	a3,32(a0)
    802005ac:	0107b603          	ld	a2,16(a5)
    802005b0:	0207b583          	ld	a1,32(a5)
    802005b4:	00813823          	sd	s0,16(sp)
    802005b8:	00050413          	mv	s0,a0
    802005bc:	00002517          	auipc	a0,0x2
    802005c0:	adc50513          	addi	a0,a0,-1316 # 80202098 <_srodata+0x98>
    802005c4:	00113c23          	sd	ra,24(sp)
    802005c8:	6a4000ef          	jal	ra,80200c6c <printk>
    802005cc:	0004b503          	ld	a0,0(s1)
    802005d0:	02043783          	ld	a5,32(s0)
    802005d4:	02053703          	ld	a4,32(a0)
    802005d8:	00f71c63          	bne	a4,a5,802005f0 <switch_to+0x60>
    802005dc:	01813083          	ld	ra,24(sp)
    802005e0:	01013403          	ld	s0,16(sp)
    802005e4:	00813483          	ld	s1,8(sp)
    802005e8:	02010113          	addi	sp,sp,32
    802005ec:	00008067          	ret
    802005f0:	0084b023          	sd	s0,0(s1)
    802005f4:	00040593          	mv	a1,s0
    802005f8:	01013403          	ld	s0,16(sp)
    802005fc:	01813083          	ld	ra,24(sp)
    80200600:	00813483          	ld	s1,8(sp)
    80200604:	02010113          	addi	sp,sp,32
    80200608:	a6dff06f          	j	80200074 <__switch_to>

000000008020060c <find_min_time>:
    8020060c:	00005717          	auipc	a4,0x5
    80200610:	9f470713          	addi	a4,a4,-1548 # 80205000 <task>
    80200614:	00073783          	ld	a5,0(a4)
    80200618:	0107b783          	ld	a5,16(a5)
    8020061c:	08078063          	beqz	a5,8020069c <find_min_time+0x90>
    80200620:	fff00693          	li	a3,-1
    80200624:	06d79663          	bne	a5,a3,80200690 <find_min_time+0x84>
    80200628:	fff00513          	li	a0,-1
    8020062c:	fff00793          	li	a5,-1
    80200630:	00873683          	ld	a3,8(a4)
    80200634:	0106b683          	ld	a3,16(a3)
    80200638:	06068463          	beqz	a3,802006a0 <find_min_time+0x94>
    8020063c:	00f6f663          	bgeu	a3,a5,80200648 <find_min_time+0x3c>
    80200640:	0006879b          	sext.w	a5,a3
    80200644:	00100513          	li	a0,1
    80200648:	01073683          	ld	a3,16(a4)
    8020064c:	0106b683          	ld	a3,16(a3)
    80200650:	04068863          	beqz	a3,802006a0 <find_min_time+0x94>
    80200654:	00f6f663          	bgeu	a3,a5,80200660 <find_min_time+0x54>
    80200658:	0006879b          	sext.w	a5,a3
    8020065c:	00200513          	li	a0,2
    80200660:	01873683          	ld	a3,24(a4)
    80200664:	0106b683          	ld	a3,16(a3)
    80200668:	02068c63          	beqz	a3,802006a0 <find_min_time+0x94>
    8020066c:	00f6f663          	bgeu	a3,a5,80200678 <find_min_time+0x6c>
    80200670:	0006879b          	sext.w	a5,a3
    80200674:	00300513          	li	a0,3
    80200678:	02073703          	ld	a4,32(a4)
    8020067c:	01073703          	ld	a4,16(a4)
    80200680:	02070063          	beqz	a4,802006a0 <find_min_time+0x94>
    80200684:	00f77e63          	bgeu	a4,a5,802006a0 <find_min_time+0x94>
    80200688:	00400513          	li	a0,4
    8020068c:	00008067          	ret
    80200690:	0007879b          	sext.w	a5,a5
    80200694:	00000513          	li	a0,0
    80200698:	f99ff06f          	j	80200630 <find_min_time+0x24>
    8020069c:	fff00513          	li	a0,-1
    802006a0:	00008067          	ret

00000000802006a4 <schedule>:
    802006a4:	fd010113          	addi	sp,sp,-48
    802006a8:	02813023          	sd	s0,32(sp)
    802006ac:	00005417          	auipc	s0,0x5
    802006b0:	95440413          	addi	s0,s0,-1708 # 80205000 <task>
    802006b4:	00043783          	ld	a5,0(s0)
    802006b8:	02113423          	sd	ra,40(sp)
    802006bc:	00913c23          	sd	s1,24(sp)
    802006c0:	0107b783          	ld	a5,16(a5)
    802006c4:	01213823          	sd	s2,16(sp)
    802006c8:	01313423          	sd	s3,8(sp)
    802006cc:	44078463          	beqz	a5,80200b14 <schedule+0x470>
    802006d0:	fff00713          	li	a4,-1
    802006d4:	16e79863          	bne	a5,a4,80200844 <schedule+0x1a0>
    802006d8:	fff00493          	li	s1,-1
    802006dc:	fff00793          	li	a5,-1
    802006e0:	00843703          	ld	a4,8(s0)
    802006e4:	01073703          	ld	a4,16(a4)
    802006e8:	04070a63          	beqz	a4,8020073c <schedule+0x98>
    802006ec:	00f77663          	bgeu	a4,a5,802006f8 <schedule+0x54>
    802006f0:	0007079b          	sext.w	a5,a4
    802006f4:	00100493          	li	s1,1
    802006f8:	01043703          	ld	a4,16(s0)
    802006fc:	01073703          	ld	a4,16(a4)
    80200700:	02070e63          	beqz	a4,8020073c <schedule+0x98>
    80200704:	00f77663          	bgeu	a4,a5,80200710 <schedule+0x6c>
    80200708:	0007079b          	sext.w	a5,a4
    8020070c:	00200493          	li	s1,2
    80200710:	01843703          	ld	a4,24(s0)
    80200714:	01073703          	ld	a4,16(a4)
    80200718:	02070263          	beqz	a4,8020073c <schedule+0x98>
    8020071c:	00f77663          	bgeu	a4,a5,80200728 <schedule+0x84>
    80200720:	0007079b          	sext.w	a5,a4
    80200724:	00300493          	li	s1,3
    80200728:	02043703          	ld	a4,32(s0)
    8020072c:	01073703          	ld	a4,16(a4)
    80200730:	00070663          	beqz	a4,8020073c <schedule+0x98>
    80200734:	00f77463          	bgeu	a4,a5,8020073c <schedule+0x98>
    80200738:	00400493          	li	s1,4
    8020073c:	00349793          	slli	a5,s1,0x3
    80200740:	00f407b3          	add	a5,s0,a5
    80200744:	0007b783          	ld	a5,0(a5)
    80200748:	00002517          	auipc	a0,0x2
    8020074c:	99050513          	addi	a0,a0,-1648 # 802020d8 <_srodata+0xd8>
    80200750:	0107a903          	lw	s2,16(a5)
    80200754:	518000ef          	jal	ra,80200c6c <printk>
    80200758:	00843783          	ld	a5,8(s0)
    8020075c:	0087b703          	ld	a4,8(a5)
    80200760:	24070e63          	beqz	a4,802009bc <schedule+0x318>
    80200764:	01043783          	ld	a5,16(s0)
    80200768:	0087b703          	ld	a4,8(a5)
    8020076c:	0e071263          	bnez	a4,80200850 <schedule+0x1ac>
    80200770:	0107b703          	ld	a4,16(a5)
    80200774:	00173993          	seqz	s3,a4
    80200778:	01277463          	bgeu	a4,s2,80200780 <schedule+0xdc>
    8020077c:	2a071a63          	bnez	a4,80200a30 <schedule+0x38c>
    80200780:	01843783          	ld	a5,24(s0)
    80200784:	0087b703          	ld	a4,8(a5)
    80200788:	00071a63          	bnez	a4,8020079c <schedule+0xf8>
    8020078c:	0107b783          	ld	a5,16(a5)
    80200790:	0c099863          	bnez	s3,80200860 <schedule+0x1bc>
    80200794:	0127f463          	bgeu	a5,s2,8020079c <schedule+0xf8>
    80200798:	28079663          	bnez	a5,80200a24 <schedule+0x380>
    8020079c:	02043783          	ld	a5,32(s0)
    802007a0:	0087b703          	ld	a4,8(a5)
    802007a4:	0c071e63          	bnez	a4,80200880 <schedule+0x1dc>
    802007a8:	0107b783          	ld	a5,16(a5)
    802007ac:	0c099663          	bnez	s3,80200878 <schedule+0x1d4>
    802007b0:	2527ec63          	bltu	a5,s2,80200a08 <schedule+0x364>
    802007b4:	00048693          	mv	a3,s1
    802007b8:	00090613          	mv	a2,s2
    802007bc:	00000593          	li	a1,0
    802007c0:	00002517          	auipc	a0,0x2
    802007c4:	92850513          	addi	a0,a0,-1752 # 802020e8 <_srodata+0xe8>
    802007c8:	4a4000ef          	jal	ra,80200c6c <printk>
    802007cc:	00048593          	mv	a1,s1
    802007d0:	00002517          	auipc	a0,0x2
    802007d4:	96850513          	addi	a0,a0,-1688 # 80202138 <_srodata+0x138>
    802007d8:	00349493          	slli	s1,s1,0x3
    802007dc:	490000ef          	jal	ra,80200c6c <printk>
    802007e0:	00005917          	auipc	s2,0x5
    802007e4:	7f090913          	addi	s2,s2,2032 # 80205fd0 <current>
    802007e8:	009404b3          	add	s1,s0,s1
    802007ec:	0004b403          	ld	s0,0(s1)
    802007f0:	00093783          	ld	a5,0(s2)
    802007f4:	00002517          	auipc	a0,0x2
    802007f8:	8a450513          	addi	a0,a0,-1884 # 80202098 <_srodata+0x98>
    802007fc:	01043703          	ld	a4,16(s0)
    80200800:	0107b603          	ld	a2,16(a5)
    80200804:	0207b583          	ld	a1,32(a5)
    80200808:	02043683          	ld	a3,32(s0)
    8020080c:	460000ef          	jal	ra,80200c6c <printk>
    80200810:	00093503          	ld	a0,0(s2)
    80200814:	02043783          	ld	a5,32(s0)
    80200818:	02053703          	ld	a4,32(a0)
    8020081c:	18f70263          	beq	a4,a5,802009a0 <schedule+0x2fc>
    80200820:	00893023          	sd	s0,0(s2)
    80200824:	00040593          	mv	a1,s0
    80200828:	02013403          	ld	s0,32(sp)
    8020082c:	02813083          	ld	ra,40(sp)
    80200830:	01813483          	ld	s1,24(sp)
    80200834:	01013903          	ld	s2,16(sp)
    80200838:	00813983          	ld	s3,8(sp)
    8020083c:	03010113          	addi	sp,sp,48
    80200840:	835ff06f          	j	80200074 <__switch_to>
    80200844:	0007879b          	sext.w	a5,a5
    80200848:	00000493          	li	s1,0
    8020084c:	e95ff06f          	j	802006e0 <schedule+0x3c>
    80200850:	01843783          	ld	a5,24(s0)
    80200854:	0087b703          	ld	a4,8(a5)
    80200858:	00071863          	bnez	a4,80200868 <schedule+0x1c4>
    8020085c:	0107b783          	ld	a5,16(a5)
    80200860:	0017b993          	seqz	s3,a5
    80200864:	f31ff06f          	j	80200794 <schedule+0xf0>
    80200868:	02043783          	ld	a5,32(s0)
    8020086c:	0087b703          	ld	a4,8(a5)
    80200870:	28071463          	bnez	a4,80200af8 <schedule+0x454>
    80200874:	0107b783          	ld	a5,16(a5)
    80200878:	0017b993          	seqz	s3,a5
    8020087c:	1d27e063          	bltu	a5,s2,80200a3c <schedule+0x398>
    80200880:	00048693          	mv	a3,s1
    80200884:	00090613          	mv	a2,s2
    80200888:	00098593          	mv	a1,s3
    8020088c:	00002517          	auipc	a0,0x2
    80200890:	85c50513          	addi	a0,a0,-1956 # 802020e8 <_srodata+0xe8>
    80200894:	3d8000ef          	jal	ra,80200c6c <printk>
    80200898:	f2098ae3          	beqz	s3,802007cc <schedule+0x128>
    8020089c:	00843483          	ld	s1,8(s0)
    802008a0:	0084b783          	ld	a5,8(s1)
    802008a4:	22078863          	beqz	a5,80200ad4 <schedule+0x430>
    802008a8:	01043483          	ld	s1,16(s0)
    802008ac:	0084b783          	ld	a5,8(s1)
    802008b0:	20078063          	beqz	a5,80200ab0 <schedule+0x40c>
    802008b4:	01843483          	ld	s1,24(s0)
    802008b8:	0084b783          	ld	a5,8(s1)
    802008bc:	1c078863          	beqz	a5,80200a8c <schedule+0x3e8>
    802008c0:	02043483          	ld	s1,32(s0)
    802008c4:	0084b783          	ld	a5,8(s1)
    802008c8:	1a078063          	beqz	a5,80200a68 <schedule+0x3c4>
    802008cc:	00043783          	ld	a5,0(s0)
    802008d0:	0107b783          	ld	a5,16(a5)
    802008d4:	24078463          	beqz	a5,80200b1c <schedule+0x478>
    802008d8:	fff00713          	li	a4,-1
    802008dc:	10e78663          	beq	a5,a4,802009e8 <schedule+0x344>
    802008e0:	0007879b          	sext.w	a5,a5
    802008e4:	00000493          	li	s1,0
    802008e8:	00843703          	ld	a4,8(s0)
    802008ec:	01073703          	ld	a4,16(a4)
    802008f0:	04070463          	beqz	a4,80200938 <schedule+0x294>
    802008f4:	00f77663          	bgeu	a4,a5,80200900 <schedule+0x25c>
    802008f8:	0007079b          	sext.w	a5,a4
    802008fc:	00100493          	li	s1,1
    80200900:	01043703          	ld	a4,16(s0)
    80200904:	01073703          	ld	a4,16(a4)
    80200908:	02070863          	beqz	a4,80200938 <schedule+0x294>
    8020090c:	00f77663          	bgeu	a4,a5,80200918 <schedule+0x274>
    80200910:	0007079b          	sext.w	a5,a4
    80200914:	00200493          	li	s1,2
    80200918:	01843703          	ld	a4,24(s0)
    8020091c:	01073703          	ld	a4,16(a4)
    80200920:	00070c63          	beqz	a4,80200938 <schedule+0x294>
    80200924:	0cf76863          	bltu	a4,a5,802009f4 <schedule+0x350>
    80200928:	02043703          	ld	a4,32(s0)
    8020092c:	01073703          	ld	a4,16(a4)
    80200930:	00070463          	beqz	a4,80200938 <schedule+0x294>
    80200934:	0cf76663          	bltu	a4,a5,80200a00 <schedule+0x35c>
    80200938:	00843703          	ld	a4,8(s0)
    8020093c:	00349793          	slli	a5,s1,0x3
    80200940:	00f407b3          	add	a5,s0,a5
    80200944:	0007b783          	ld	a5,0(a5)
    80200948:	00873683          	ld	a3,8(a4)
    8020094c:	0107a783          	lw	a5,16(a5)
    80200950:	00069663          	bnez	a3,8020095c <schedule+0x2b8>
    80200954:	01073703          	ld	a4,16(a4)
    80200958:	0cf76063          	bltu	a4,a5,80200a18 <schedule+0x374>
    8020095c:	01043703          	ld	a4,16(s0)
    80200960:	00873683          	ld	a3,8(a4)
    80200964:	00069663          	bnez	a3,80200970 <schedule+0x2cc>
    80200968:	01073703          	ld	a4,16(a4)
    8020096c:	0ef76863          	bltu	a4,a5,80200a5c <schedule+0x3b8>
    80200970:	01843703          	ld	a4,24(s0)
    80200974:	00873683          	ld	a3,8(a4)
    80200978:	00069663          	bnez	a3,80200984 <schedule+0x2e0>
    8020097c:	01073703          	ld	a4,16(a4)
    80200980:	0cf76863          	bltu	a4,a5,80200a50 <schedule+0x3ac>
    80200984:	02043703          	ld	a4,32(s0)
    80200988:	00873683          	ld	a3,8(a4)
    8020098c:	e40690e3          	bnez	a3,802007cc <schedule+0x128>
    80200990:	01073703          	ld	a4,16(a4)
    80200994:	e2f77ce3          	bgeu	a4,a5,802007cc <schedule+0x128>
    80200998:	00400493          	li	s1,4
    8020099c:	e31ff06f          	j	802007cc <schedule+0x128>
    802009a0:	02813083          	ld	ra,40(sp)
    802009a4:	02013403          	ld	s0,32(sp)
    802009a8:	01813483          	ld	s1,24(sp)
    802009ac:	01013903          	ld	s2,16(sp)
    802009b0:	00813983          	ld	s3,8(sp)
    802009b4:	03010113          	addi	sp,sp,48
    802009b8:	00008067          	ret
    802009bc:	0107b783          	ld	a5,16(a5)
    802009c0:	0017b993          	seqz	s3,a5
    802009c4:	0127f463          	bgeu	a5,s2,802009cc <schedule+0x328>
    802009c8:	06079e63          	bnez	a5,80200a44 <schedule+0x3a0>
    802009cc:	01043703          	ld	a4,16(s0)
    802009d0:	00873683          	ld	a3,8(a4)
    802009d4:	da0696e3          	bnez	a3,80200780 <schedule+0xdc>
    802009d8:	01073703          	ld	a4,16(a4)
    802009dc:	d8078ce3          	beqz	a5,80200774 <schedule+0xd0>
    802009e0:	00000993          	li	s3,0
    802009e4:	d95ff06f          	j	80200778 <schedule+0xd4>
    802009e8:	fff00493          	li	s1,-1
    802009ec:	fff00793          	li	a5,-1
    802009f0:	ef9ff06f          	j	802008e8 <schedule+0x244>
    802009f4:	0007079b          	sext.w	a5,a4
    802009f8:	00300493          	li	s1,3
    802009fc:	f2dff06f          	j	80200928 <schedule+0x284>
    80200a00:	00400493          	li	s1,4
    80200a04:	f35ff06f          	j	80200938 <schedule+0x294>
    80200a08:	da0786e3          	beqz	a5,802007b4 <schedule+0x110>
    80200a0c:	0007891b          	sext.w	s2,a5
    80200a10:	00400493          	li	s1,4
    80200a14:	e6dff06f          	j	80200880 <schedule+0x1dc>
    80200a18:	0007079b          	sext.w	a5,a4
    80200a1c:	00100493          	li	s1,1
    80200a20:	f3dff06f          	j	8020095c <schedule+0x2b8>
    80200a24:	0007891b          	sext.w	s2,a5
    80200a28:	00300493          	li	s1,3
    80200a2c:	d71ff06f          	j	8020079c <schedule+0xf8>
    80200a30:	0007091b          	sext.w	s2,a4
    80200a34:	00200493          	li	s1,2
    80200a38:	d49ff06f          	j	80200780 <schedule+0xdc>
    80200a3c:	e40782e3          	beqz	a5,80200880 <schedule+0x1dc>
    80200a40:	fcdff06f          	j	80200a0c <schedule+0x368>
    80200a44:	0007891b          	sext.w	s2,a5
    80200a48:	00100493          	li	s1,1
    80200a4c:	f81ff06f          	j	802009cc <schedule+0x328>
    80200a50:	0007079b          	sext.w	a5,a4
    80200a54:	00300493          	li	s1,3
    80200a58:	f2dff06f          	j	80200984 <schedule+0x2e0>
    80200a5c:	0007079b          	sext.w	a5,a4
    80200a60:	00200493          	li	s1,2
    80200a64:	f0dff06f          	j	80200970 <schedule+0x2cc>
    80200a68:	654000ef          	jal	ra,802010bc <rand>
    80200a6c:	02043783          	ld	a5,32(s0)
    80200a70:	00a4b823          	sd	a0,16(s1)
    80200a74:	00001517          	auipc	a0,0x1
    80200a78:	6a450513          	addi	a0,a0,1700 # 80202118 <_srodata+0x118>
    80200a7c:	0107b603          	ld	a2,16(a5)
    80200a80:	0207b583          	ld	a1,32(a5)
    80200a84:	1e8000ef          	jal	ra,80200c6c <printk>
    80200a88:	e45ff06f          	j	802008cc <schedule+0x228>
    80200a8c:	630000ef          	jal	ra,802010bc <rand>
    80200a90:	01843783          	ld	a5,24(s0)
    80200a94:	00a4b823          	sd	a0,16(s1)
    80200a98:	00001517          	auipc	a0,0x1
    80200a9c:	68050513          	addi	a0,a0,1664 # 80202118 <_srodata+0x118>
    80200aa0:	0107b603          	ld	a2,16(a5)
    80200aa4:	0207b583          	ld	a1,32(a5)
    80200aa8:	1c4000ef          	jal	ra,80200c6c <printk>
    80200aac:	e15ff06f          	j	802008c0 <schedule+0x21c>
    80200ab0:	60c000ef          	jal	ra,802010bc <rand>
    80200ab4:	01043783          	ld	a5,16(s0)
    80200ab8:	00a4b823          	sd	a0,16(s1)
    80200abc:	00001517          	auipc	a0,0x1
    80200ac0:	65c50513          	addi	a0,a0,1628 # 80202118 <_srodata+0x118>
    80200ac4:	0107b603          	ld	a2,16(a5)
    80200ac8:	0207b583          	ld	a1,32(a5)
    80200acc:	1a0000ef          	jal	ra,80200c6c <printk>
    80200ad0:	de5ff06f          	j	802008b4 <schedule+0x210>
    80200ad4:	5e8000ef          	jal	ra,802010bc <rand>
    80200ad8:	00843783          	ld	a5,8(s0)
    80200adc:	00a4b823          	sd	a0,16(s1)
    80200ae0:	00001517          	auipc	a0,0x1
    80200ae4:	63850513          	addi	a0,a0,1592 # 80202118 <_srodata+0x118>
    80200ae8:	0107b603          	ld	a2,16(a5)
    80200aec:	0207b583          	ld	a1,32(a5)
    80200af0:	17c000ef          	jal	ra,80200c6c <printk>
    80200af4:	db5ff06f          	j	802008a8 <schedule+0x204>
    80200af8:	00048693          	mv	a3,s1
    80200afc:	00090613          	mv	a2,s2
    80200b00:	00100593          	li	a1,1
    80200b04:	00001517          	auipc	a0,0x1
    80200b08:	5e450513          	addi	a0,a0,1508 # 802020e8 <_srodata+0xe8>
    80200b0c:	160000ef          	jal	ra,80200c6c <printk>
    80200b10:	d8dff06f          	j	8020089c <schedule+0x1f8>
    80200b14:	fff00493          	li	s1,-1
    80200b18:	c25ff06f          	j	8020073c <schedule+0x98>
    80200b1c:	fff00493          	li	s1,-1
    80200b20:	e19ff06f          	j	80200938 <schedule+0x294>

0000000080200b24 <do_timer>:
    80200b24:	00005717          	auipc	a4,0x5
    80200b28:	4ac73703          	ld	a4,1196(a4) # 80205fd0 <current>
    80200b2c:	00005797          	auipc	a5,0x5
    80200b30:	4ac7b783          	ld	a5,1196(a5) # 80205fd8 <idle>
    80200b34:	02073683          	ld	a3,32(a4)
    80200b38:	0207b783          	ld	a5,32(a5)
    80200b3c:	00f68e63          	beq	a3,a5,80200b58 <do_timer+0x34>
    80200b40:	01073783          	ld	a5,16(a4)
    80200b44:	fff78793          	addi	a5,a5,-1
    80200b48:	00f73823          	sd	a5,16(a4)
    80200b4c:	00078463          	beqz	a5,80200b54 <do_timer+0x30>
    80200b50:	00008067          	ret
    80200b54:	b51ff06f          	j	802006a4 <schedule>
    80200b58:	ff010113          	addi	sp,sp,-16
    80200b5c:	00001517          	auipc	a0,0x1
    80200b60:	5ec50513          	addi	a0,a0,1516 # 80202148 <_srodata+0x148>
    80200b64:	00113423          	sd	ra,8(sp)
    80200b68:	104000ef          	jal	ra,80200c6c <printk>
    80200b6c:	00813083          	ld	ra,8(sp)
    80200b70:	01010113          	addi	sp,sp,16
    80200b74:	b31ff06f          	j	802006a4 <schedule>

0000000080200b78 <sbi_ecall>:
    80200b78:	ff010113          	addi	sp,sp,-16
    80200b7c:	00050e13          	mv	t3,a0
    80200b80:	00058313          	mv	t1,a1
    80200b84:	00060e93          	mv	t4,a2
    80200b88:	00068f13          	mv	t5,a3
    80200b8c:	00070f93          	mv	t6,a4
    80200b90:	00078293          	mv	t0,a5
    80200b94:	01c008b3          	add	a7,zero,t3
    80200b98:	00600833          	add	a6,zero,t1
    80200b9c:	01d00533          	add	a0,zero,t4
    80200ba0:	01e005b3          	add	a1,zero,t5
    80200ba4:	01f00633          	add	a2,zero,t6
    80200ba8:	005006b3          	add	a3,zero,t0
    80200bac:	01000733          	add	a4,zero,a6
    80200bb0:	011007b3          	add	a5,zero,a7
    80200bb4:	00000073          	ecall
    80200bb8:	00b00333          	add	t1,zero,a1
    80200bbc:	00a00e33          	add	t3,zero,a0
    80200bc0:	000e0513          	mv	a0,t3
    80200bc4:	00030593          	mv	a1,t1
    80200bc8:	01010113          	addi	sp,sp,16
    80200bcc:	00008067          	ret

0000000080200bd0 <dec2bit>:
    80200bd0:	fff5859b          	addiw	a1,a1,-1
    80200bd4:	00b55533          	srl	a0,a0,a1
    80200bd8:	00157513          	andi	a0,a0,1
    80200bdc:	00008067          	ret

0000000080200be0 <trap_handler>:
    80200be0:	00054463          	bltz	a0,80200be8 <trap_handler+0x8>
    80200be4:	00008067          	ret
    80200be8:	fff00793          	li	a5,-1
    80200bec:	03f79793          	slli	a5,a5,0x3f
    80200bf0:	00578793          	addi	a5,a5,5
    80200bf4:	fef518e3          	bne	a0,a5,80200be4 <trap_handler+0x4>
    80200bf8:	ff010113          	addi	sp,sp,-16
    80200bfc:	00113423          	sd	ra,8(sp)
    80200c00:	e18ff0ef          	jal	ra,80200218 <clock_set_next_event>
    80200c04:	00813083          	ld	ra,8(sp)
    80200c08:	01010113          	addi	sp,sp,16
    80200c0c:	f19ff06f          	j	80200b24 <do_timer>

0000000080200c10 <start_kernel>:
    80200c10:	ff010113          	addi	sp,sp,-16
    80200c14:	00001517          	auipc	a0,0x1
    80200c18:	54c50513          	addi	a0,a0,1356 # 80202160 <_srodata+0x160>
    80200c1c:	00113423          	sd	ra,8(sp)
    80200c20:	04c000ef          	jal	ra,80200c6c <printk>
    80200c24:	00001517          	auipc	a0,0x1
    80200c28:	54450513          	addi	a0,a0,1348 # 80202168 <_srodata+0x168>
    80200c2c:	040000ef          	jal	ra,80200c6c <printk>
    80200c30:	014000ef          	jal	ra,80200c44 <test>
    80200c34:	00813083          	ld	ra,8(sp)
    80200c38:	00000513          	li	a0,0
    80200c3c:	01010113          	addi	sp,sp,16
    80200c40:	00008067          	ret

0000000080200c44 <test>:
    80200c44:	0000006f          	j	80200c44 <test>

0000000080200c48 <putc>:
    80200c48:	00050613          	mv	a2,a0
    80200c4c:	00000893          	li	a7,0
    80200c50:	00000813          	li	a6,0
    80200c54:	00000793          	li	a5,0
    80200c58:	00000713          	li	a4,0
    80200c5c:	00000693          	li	a3,0
    80200c60:	00000593          	li	a1,0
    80200c64:	00100513          	li	a0,1
    80200c68:	f11ff06f          	j	80200b78 <sbi_ecall>

0000000080200c6c <printk>:
    80200c6c:	f1010113          	addi	sp,sp,-240
    80200c70:	07813023          	sd	s8,96(sp)
    80200c74:	0a113423          	sd	ra,168(sp)
    80200c78:	0a813023          	sd	s0,160(sp)
    80200c7c:	08913c23          	sd	s1,152(sp)
    80200c80:	09213823          	sd	s2,144(sp)
    80200c84:	09313423          	sd	s3,136(sp)
    80200c88:	09413023          	sd	s4,128(sp)
    80200c8c:	07513c23          	sd	s5,120(sp)
    80200c90:	07613823          	sd	s6,112(sp)
    80200c94:	07713423          	sd	s7,104(sp)
    80200c98:	05913c23          	sd	s9,88(sp)
    80200c9c:	05a13823          	sd	s10,80(sp)
    80200ca0:	05b13423          	sd	s11,72(sp)
    80200ca4:	00054303          	lbu	t1,0(a0)
    80200ca8:	0b810c13          	addi	s8,sp,184
    80200cac:	0ab13c23          	sd	a1,184(sp)
    80200cb0:	0cc13023          	sd	a2,192(sp)
    80200cb4:	0cd13423          	sd	a3,200(sp)
    80200cb8:	0ce13823          	sd	a4,208(sp)
    80200cbc:	0cf13c23          	sd	a5,216(sp)
    80200cc0:	0f013023          	sd	a6,224(sp)
    80200cc4:	0f113423          	sd	a7,232(sp)
    80200cc8:	01813c23          	sd	s8,24(sp)
    80200ccc:	3e030463          	beqz	t1,802010b4 <printk+0x448>
    80200cd0:	02010b13          	addi	s6,sp,32
    80200cd4:	00100913          	li	s2,1
    80200cd8:	00050413          	mv	s0,a0
    80200cdc:	00000493          	li	s1,0
    80200ce0:	00000d13          	li	s10,0
    80200ce4:	00000b93          	li	s7,0
    80200ce8:	02500a93          	li	s5,37
    80200cec:	01500a13          	li	s4,21
    80200cf0:	00001997          	auipc	s3,0x1
    80200cf4:	48898993          	addi	s3,s3,1160 # 80202178 <_srodata+0x178>
    80200cf8:	4169093b          	subw	s2,s2,s6
    80200cfc:	020b8263          	beqz	s7,80200d20 <printk+0xb4>
    80200d00:	f9d3031b          	addiw	t1,t1,-99
    80200d04:	0ff37313          	zext.b	t1,t1
    80200d08:	046a6263          	bltu	s4,t1,80200d4c <printk+0xe0>
    80200d0c:	00231313          	slli	t1,t1,0x2
    80200d10:	01330333          	add	t1,t1,s3
    80200d14:	00032783          	lw	a5,0(t1)
    80200d18:	013787b3          	add	a5,a5,s3
    80200d1c:	00078067          	jr	a5
    80200d20:	2f530063          	beq	t1,s5,80201000 <printk+0x394>
    80200d24:	00000893          	li	a7,0
    80200d28:	00000813          	li	a6,0
    80200d2c:	00000793          	li	a5,0
    80200d30:	00000713          	li	a4,0
    80200d34:	00000693          	li	a3,0
    80200d38:	00030613          	mv	a2,t1
    80200d3c:	00000593          	li	a1,0
    80200d40:	00100513          	li	a0,1
    80200d44:	e35ff0ef          	jal	ra,80200b78 <sbi_ecall>
    80200d48:	00148493          	addi	s1,s1,1
    80200d4c:	00144303          	lbu	t1,1(s0)
    80200d50:	00140413          	addi	s0,s0,1
    80200d54:	fa0314e3          	bnez	t1,80200cfc <printk+0x90>
    80200d58:	0004851b          	sext.w	a0,s1
    80200d5c:	0a813083          	ld	ra,168(sp)
    80200d60:	0a013403          	ld	s0,160(sp)
    80200d64:	09813483          	ld	s1,152(sp)
    80200d68:	09013903          	ld	s2,144(sp)
    80200d6c:	08813983          	ld	s3,136(sp)
    80200d70:	08013a03          	ld	s4,128(sp)
    80200d74:	07813a83          	ld	s5,120(sp)
    80200d78:	07013b03          	ld	s6,112(sp)
    80200d7c:	06813b83          	ld	s7,104(sp)
    80200d80:	06013c03          	ld	s8,96(sp)
    80200d84:	05813c83          	ld	s9,88(sp)
    80200d88:	05013d03          	ld	s10,80(sp)
    80200d8c:	04813d83          	ld	s11,72(sp)
    80200d90:	0f010113          	addi	sp,sp,240
    80200d94:	00008067          	ret
    80200d98:	008c0793          	addi	a5,s8,8
    80200d9c:	00f13423          	sd	a5,8(sp)
    80200da0:	2c0d1463          	bnez	s10,80201068 <printk+0x3fc>
    80200da4:	000c2c83          	lw	s9,0(s8)
    80200da8:	00700d13          	li	s10,7
    80200dac:	002d1d93          	slli	s11,s10,0x2
    80200db0:	00900c13          	li	s8,9
    80200db4:	ffc00b93          	li	s7,-4
    80200db8:	41bcd7b3          	sra	a5,s9,s11
    80200dbc:	00f7f713          	andi	a4,a5,15
    80200dc0:	05770613          	addi	a2,a4,87
    80200dc4:	00ec4463          	blt	s8,a4,80200dcc <printk+0x160>
    80200dc8:	03070613          	addi	a2,a4,48
    80200dcc:	ffcd8d9b          	addiw	s11,s11,-4
    80200dd0:	00000893          	li	a7,0
    80200dd4:	00000813          	li	a6,0
    80200dd8:	00000793          	li	a5,0
    80200ddc:	00000713          	li	a4,0
    80200de0:	00000693          	li	a3,0
    80200de4:	00000593          	li	a1,0
    80200de8:	00100513          	li	a0,1
    80200dec:	d8dff0ef          	jal	ra,80200b78 <sbi_ecall>
    80200df0:	fd7d94e3          	bne	s11,s7,80200db8 <printk+0x14c>
    80200df4:	00144303          	lbu	t1,1(s0)
    80200df8:	00148493          	addi	s1,s1,1
    80200dfc:	009d04b3          	add	s1,s10,s1
    80200e00:	00813c03          	ld	s8,8(sp)
    80200e04:	00000d13          	li	s10,0
    80200e08:	00000b93          	li	s7,0
    80200e0c:	00140413          	addi	s0,s0,1
    80200e10:	ee0316e3          	bnez	t1,80200cfc <printk+0x90>
    80200e14:	f45ff06f          	j	80200d58 <printk+0xec>
    80200e18:	008c0c93          	addi	s9,s8,8
    80200e1c:	240d1263          	bnez	s10,80201060 <printk+0x3f4>
    80200e20:	000c2783          	lw	a5,0(s8)
    80200e24:	03000713          	li	a4,48
    80200e28:	02e13023          	sd	a4,32(sp)
    80200e2c:	02013423          	sd	zero,40(sp)
    80200e30:	02013823          	sd	zero,48(sp)
    80200e34:	02010c23          	sb	zero,56(sp)
    80200e38:	24078863          	beqz	a5,80201088 <printk+0x41c>
    80200e3c:	000b0713          	mv	a4,s6
    80200e40:	00a00613          	li	a2,10
    80200e44:	02c7e6b3          	rem	a3,a5,a2
    80200e48:	00e90c3b          	addw	s8,s2,a4
    80200e4c:	00170713          	addi	a4,a4,1
    80200e50:	02c7c7b3          	div	a5,a5,a2
    80200e54:	0306869b          	addiw	a3,a3,48
    80200e58:	fed70fa3          	sb	a3,-1(a4)
    80200e5c:	fe0794e3          	bnez	a5,80200e44 <printk+0x1d8>
    80200e60:	020c1793          	slli	a5,s8,0x20
    80200e64:	01f10713          	addi	a4,sp,31
    80200e68:	0207d793          	srli	a5,a5,0x20
    80200e6c:	01870d33          	add	s10,a4,s8
    80200e70:	018b0bb3          	add	s7,s6,s8
    80200e74:	40fd0d33          	sub	s10,s10,a5
    80200e78:	000bc603          	lbu	a2,0(s7)
    80200e7c:	00000893          	li	a7,0
    80200e80:	fffb8b93          	addi	s7,s7,-1
    80200e84:	00000813          	li	a6,0
    80200e88:	00000793          	li	a5,0
    80200e8c:	00000713          	li	a4,0
    80200e90:	00000693          	li	a3,0
    80200e94:	00000593          	li	a1,0
    80200e98:	00100513          	li	a0,1
    80200e9c:	cddff0ef          	jal	ra,80200b78 <sbi_ecall>
    80200ea0:	fd7d1ce3          	bne	s10,s7,80200e78 <printk+0x20c>
    80200ea4:	001c0c1b          	addiw	s8,s8,1
    80200ea8:	00144303          	lbu	t1,1(s0)
    80200eac:	018484b3          	add	s1,s1,s8
    80200eb0:	00000d13          	li	s10,0
    80200eb4:	000c8c13          	mv	s8,s9
    80200eb8:	00000b93          	li	s7,0
    80200ebc:	00140413          	addi	s0,s0,1
    80200ec0:	e2031ee3          	bnez	t1,80200cfc <printk+0x90>
    80200ec4:	e95ff06f          	j	80200d58 <printk+0xec>
    80200ec8:	000c3b83          	ld	s7,0(s8)
    80200ecc:	008c0c13          	addi	s8,s8,8
    80200ed0:	000bc603          	lbu	a2,0(s7)
    80200ed4:	02060e63          	beqz	a2,80200f10 <printk+0x2a4>
    80200ed8:	00148c93          	addi	s9,s1,1
    80200edc:	417c8cb3          	sub	s9,s9,s7
    80200ee0:	00000893          	li	a7,0
    80200ee4:	00000813          	li	a6,0
    80200ee8:	00000793          	li	a5,0
    80200eec:	00000713          	li	a4,0
    80200ef0:	00000693          	li	a3,0
    80200ef4:	00000593          	li	a1,0
    80200ef8:	00100513          	li	a0,1
    80200efc:	c7dff0ef          	jal	ra,80200b78 <sbi_ecall>
    80200f00:	001bc603          	lbu	a2,1(s7)
    80200f04:	019b84b3          	add	s1,s7,s9
    80200f08:	001b8b93          	addi	s7,s7,1
    80200f0c:	fc061ae3          	bnez	a2,80200ee0 <printk+0x274>
    80200f10:	00144303          	lbu	t1,1(s0)
    80200f14:	00000d13          	li	s10,0
    80200f18:	00000b93          	li	s7,0
    80200f1c:	00140413          	addi	s0,s0,1
    80200f20:	dc031ee3          	bnez	t1,80200cfc <printk+0x90>
    80200f24:	e35ff06f          	j	80200d58 <printk+0xec>
    80200f28:	008c0c93          	addi	s9,s8,8
    80200f2c:	0e0d0463          	beqz	s10,80201014 <printk+0x3a8>
    80200f30:	000c3b83          	ld	s7,0(s8)
    80200f34:	0e0bc463          	bltz	s7,8020101c <printk+0x3b0>
    80200f38:	03000793          	li	a5,48
    80200f3c:	02f13023          	sd	a5,32(sp)
    80200f40:	02013423          	sd	zero,40(sp)
    80200f44:	02013823          	sd	zero,48(sp)
    80200f48:	02010c23          	sb	zero,56(sp)
    80200f4c:	120b8e63          	beqz	s7,80201088 <printk+0x41c>
    80200f50:	000b0793          	mv	a5,s6
    80200f54:	00a00693          	li	a3,10
    80200f58:	02dbe733          	rem	a4,s7,a3
    80200f5c:	00f90c3b          	addw	s8,s2,a5
    80200f60:	00178793          	addi	a5,a5,1
    80200f64:	02dbcbb3          	div	s7,s7,a3
    80200f68:	0307071b          	addiw	a4,a4,48
    80200f6c:	fee78fa3          	sb	a4,-1(a5)
    80200f70:	fe0b94e3          	bnez	s7,80200f58 <printk+0x2ec>
    80200f74:	020c1793          	slli	a5,s8,0x20
    80200f78:	01f10713          	addi	a4,sp,31
    80200f7c:	0207d793          	srli	a5,a5,0x20
    80200f80:	01870d33          	add	s10,a4,s8
    80200f84:	018b0bb3          	add	s7,s6,s8
    80200f88:	40fd0d33          	sub	s10,s10,a5
    80200f8c:	000bc603          	lbu	a2,0(s7)
    80200f90:	00000893          	li	a7,0
    80200f94:	fffb8b93          	addi	s7,s7,-1
    80200f98:	00000813          	li	a6,0
    80200f9c:	00000793          	li	a5,0
    80200fa0:	00000713          	li	a4,0
    80200fa4:	00000693          	li	a3,0
    80200fa8:	00000593          	li	a1,0
    80200fac:	00100513          	li	a0,1
    80200fb0:	bc9ff0ef          	jal	ra,80200b78 <sbi_ecall>
    80200fb4:	fdab9ce3          	bne	s7,s10,80200f8c <printk+0x320>
    80200fb8:	eedff06f          	j	80200ea4 <printk+0x238>
    80200fbc:	000c4603          	lbu	a2,0(s8)
    80200fc0:	00000893          	li	a7,0
    80200fc4:	00000813          	li	a6,0
    80200fc8:	00000793          	li	a5,0
    80200fcc:	00000713          	li	a4,0
    80200fd0:	00000693          	li	a3,0
    80200fd4:	00000593          	li	a1,0
    80200fd8:	00100513          	li	a0,1
    80200fdc:	b9dff0ef          	jal	ra,80200b78 <sbi_ecall>
    80200fe0:	00144303          	lbu	t1,1(s0)
    80200fe4:	008c0c13          	addi	s8,s8,8
    80200fe8:	00148493          	addi	s1,s1,1
    80200fec:	00000d13          	li	s10,0
    80200ff0:	00000b93          	li	s7,0
    80200ff4:	00140413          	addi	s0,s0,1
    80200ff8:	d00312e3          	bnez	t1,80200cfc <printk+0x90>
    80200ffc:	d5dff06f          	j	80200d58 <printk+0xec>
    80201000:	00144303          	lbu	t1,1(s0)
    80201004:	00100b93          	li	s7,1
    80201008:	00140413          	addi	s0,s0,1
    8020100c:	ce0318e3          	bnez	t1,80200cfc <printk+0x90>
    80201010:	d49ff06f          	j	80200d58 <printk+0xec>
    80201014:	000c2b83          	lw	s7,0(s8)
    80201018:	f20bd0e3          	bgez	s7,80200f38 <printk+0x2cc>
    8020101c:	00000793          	li	a5,0
    80201020:	00000893          	li	a7,0
    80201024:	00000813          	li	a6,0
    80201028:	00000713          	li	a4,0
    8020102c:	00000693          	li	a3,0
    80201030:	02d00613          	li	a2,45
    80201034:	00000593          	li	a1,0
    80201038:	00100513          	li	a0,1
    8020103c:	b3dff0ef          	jal	ra,80200b78 <sbi_ecall>
    80201040:	03000793          	li	a5,48
    80201044:	41700bb3          	neg	s7,s7
    80201048:	00148493          	addi	s1,s1,1
    8020104c:	02f13023          	sd	a5,32(sp)
    80201050:	02013423          	sd	zero,40(sp)
    80201054:	02013823          	sd	zero,48(sp)
    80201058:	02010c23          	sb	zero,56(sp)
    8020105c:	ef5ff06f          	j	80200f50 <printk+0x2e4>
    80201060:	000c3783          	ld	a5,0(s8)
    80201064:	dc1ff06f          	j	80200e24 <printk+0x1b8>
    80201068:	000c3c83          	ld	s9,0(s8)
    8020106c:	00f00d13          	li	s10,15
    80201070:	d3dff06f          	j	80200dac <printk+0x140>
    80201074:	00144303          	lbu	t1,1(s0)
    80201078:	000b8d13          	mv	s10,s7
    8020107c:	00140413          	addi	s0,s0,1
    80201080:	c6031ee3          	bnez	t1,80200cfc <printk+0x90>
    80201084:	cd5ff06f          	j	80200d58 <printk+0xec>
    80201088:	00000893          	li	a7,0
    8020108c:	00000813          	li	a6,0
    80201090:	00000793          	li	a5,0
    80201094:	00000713          	li	a4,0
    80201098:	00000693          	li	a3,0
    8020109c:	03000613          	li	a2,48
    802010a0:	00000593          	li	a1,0
    802010a4:	00100513          	li	a0,1
    802010a8:	ad1ff0ef          	jal	ra,80200b78 <sbi_ecall>
    802010ac:	00100c13          	li	s8,1
    802010b0:	df9ff06f          	j	80200ea8 <printk+0x23c>
    802010b4:	00000513          	li	a0,0
    802010b8:	ca5ff06f          	j	80200d5c <printk+0xf0>

00000000802010bc <rand>:
    802010bc:	00005317          	auipc	t1,0x5
    802010c0:	f2430313          	addi	t1,t1,-220 # 80205fe0 <initialize>
    802010c4:	00032783          	lw	a5,0(t1)
    802010c8:	00004897          	auipc	a7,0x4
    802010cc:	f6088893          	addi	a7,a7,-160 # 80205028 <r>
    802010d0:	0e079c63          	bnez	a5,802011c8 <rand+0x10c>
    802010d4:	3557b7b7          	lui	a5,0x3557b
    802010d8:	01479793          	slli	a5,a5,0x14
    802010dc:	00d78793          	addi	a5,a5,13 # 3557b00d <_skernel-0x4ac84ff3>
    802010e0:	00004537          	lui	a0,0x4
    802010e4:	80000637          	lui	a2,0x80000
    802010e8:	00f8b023          	sd	a5,0(a7)
    802010ec:	00004717          	auipc	a4,0x4
    802010f0:	f4470713          	addi	a4,a4,-188 # 80205030 <r+0x8>
    802010f4:	00004817          	auipc	a6,0x4
    802010f8:	fb080813          	addi	a6,a6,-80 # 802050a4 <r+0x7c>
    802010fc:	1a750513          	addi	a0,a0,423 # 41a7 <_skernel-0x801fbe59>
    80201100:	fff64613          	not	a2,a2
    80201104:	0100006f          	j	80201114 <rand+0x58>
    80201108:	00d72023          	sw	a3,0(a4)
    8020110c:	00470713          	addi	a4,a4,4
    80201110:	03070463          	beq	a4,a6,80201138 <rand+0x7c>
    80201114:	ffc72783          	lw	a5,-4(a4)
    80201118:	02a787b3          	mul	a5,a5,a0
    8020111c:	02c7e7b3          	rem	a5,a5,a2
    80201120:	0007869b          	sext.w	a3,a5
    80201124:	00c685bb          	addw	a1,a3,a2
    80201128:	fe07d0e3          	bgez	a5,80201108 <rand+0x4c>
    8020112c:	00b72023          	sw	a1,0(a4)
    80201130:	00470713          	addi	a4,a4,4
    80201134:	ff0710e3          	bne	a4,a6,80201114 <rand+0x58>
    80201138:	0088a683          	lw	a3,8(a7)
    8020113c:	000357b7          	lui	a5,0x35
    80201140:	00d00713          	li	a4,13
    80201144:	57b78793          	addi	a5,a5,1403 # 3557b <_skernel-0x801caa85>
    80201148:	06e8ae23          	sw	a4,124(a7)
    8020114c:	08f8a023          	sw	a5,128(a7)
    80201150:	08d8a223          	sw	a3,132(a7)
    80201154:	00004717          	auipc	a4,0x4
    80201158:	ee070713          	addi	a4,a4,-288 # 80205034 <r+0xc>
    8020115c:	00d00613          	li	a2,13
    80201160:	02200593          	li	a1,34
    80201164:	15700513          	li	a0,343
    80201168:	00072e83          	lw	t4,0(a4)
    8020116c:	00472e03          	lw	t3,4(a4)
    80201170:	00872803          	lw	a6,8(a4)
    80201174:	00ce863b          	addw	a2,t4,a2
    80201178:	00fe07bb          	addw	a5,t3,a5
    8020117c:	00d806bb          	addw	a3,a6,a3
    80201180:	06c72e23          	sw	a2,124(a4)
    80201184:	08f72023          	sw	a5,128(a4)
    80201188:	08d72223          	sw	a3,132(a4)
    8020118c:	0035859b          	addiw	a1,a1,3
    80201190:	00c70713          	addi	a4,a4,12
    80201194:	fca59ae3          	bne	a1,a0,80201168 <rand+0xac>
    80201198:	00004797          	auipc	a5,0x4
    8020119c:	3ec78793          	addi	a5,a5,1004 # 80205584 <r+0x55c>
    802011a0:	00004617          	auipc	a2,0x4
    802011a4:	3e860613          	addi	a2,a2,1000 # 80205588 <r+0x560>
    802011a8:	ff47a683          	lw	a3,-12(a5)
    802011ac:	f847a703          	lw	a4,-124(a5)
    802011b0:	00478793          	addi	a5,a5,4
    802011b4:	00d7073b          	addw	a4,a4,a3
    802011b8:	fee7ae23          	sw	a4,-4(a5)
    802011bc:	fef616e3          	bne	a2,a5,802011a8 <rand+0xec>
    802011c0:	00100793          	li	a5,1
    802011c4:	00f32023          	sw	a5,0(t1)
    802011c8:	00005617          	auipc	a2,0x5
    802011cc:	e1c60613          	addi	a2,a2,-484 # 80205fe4 <t>
    802011d0:	00062783          	lw	a5,0(a2)
    802011d4:	29000713          	li	a4,656
    802011d8:	02e7e7bb          	remw	a5,a5,a4
    802011dc:	1397869b          	addiw	a3,a5,313
    802011e0:	1557871b          	addiw	a4,a5,341
    802011e4:	00269693          	slli	a3,a3,0x2
    802011e8:	00271713          	slli	a4,a4,0x2
    802011ec:	00d886b3          	add	a3,a7,a3
    802011f0:	00e88733          	add	a4,a7,a4
    802011f4:	0006a583          	lw	a1,0(a3)
    802011f8:	00072703          	lw	a4,0(a4)
    802011fc:	1587869b          	addiw	a3,a5,344
    80201200:	00269693          	slli	a3,a3,0x2
    80201204:	00b7053b          	addw	a0,a4,a1
    80201208:	00a00593          	li	a1,10
    8020120c:	00050713          	mv	a4,a0
    80201210:	02b57533          	remu	a0,a0,a1
    80201214:	00d888b3          	add	a7,a7,a3
    80201218:	0017879b          	addiw	a5,a5,1
    8020121c:	00e8a023          	sw	a4,0(a7)
    80201220:	00f62023          	sw	a5,0(a2)
    80201224:	00150513          	addi	a0,a0,1
    80201228:	00008067          	ret

000000008020122c <memset>:
    8020122c:	1a060863          	beqz	a2,802013dc <memset+0x1b0>
    80201230:	40a007b3          	neg	a5,a0
    80201234:	0077f793          	andi	a5,a5,7
    80201238:	00778693          	addi	a3,a5,7
    8020123c:	00b00813          	li	a6,11
    80201240:	0ff5f713          	zext.b	a4,a1
    80201244:	fff60593          	addi	a1,a2,-1
    80201248:	1906ec63          	bltu	a3,a6,802013e0 <memset+0x1b4>
    8020124c:	1ad5ec63          	bltu	a1,a3,80201404 <memset+0x1d8>
    80201250:	1a078663          	beqz	a5,802013fc <memset+0x1d0>
    80201254:	00e50023          	sb	a4,0(a0)
    80201258:	00100693          	li	a3,1
    8020125c:	18d78c63          	beq	a5,a3,802013f4 <memset+0x1c8>
    80201260:	00e500a3          	sb	a4,1(a0)
    80201264:	00200693          	li	a3,2
    80201268:	1ad78263          	beq	a5,a3,8020140c <memset+0x1e0>
    8020126c:	00e50123          	sb	a4,2(a0)
    80201270:	00300693          	li	a3,3
    80201274:	16d78a63          	beq	a5,a3,802013e8 <memset+0x1bc>
    80201278:	00e501a3          	sb	a4,3(a0)
    8020127c:	00400693          	li	a3,4
    80201280:	18d78a63          	beq	a5,a3,80201414 <memset+0x1e8>
    80201284:	00e50223          	sb	a4,4(a0)
    80201288:	00500693          	li	a3,5
    8020128c:	18d78863          	beq	a5,a3,8020141c <memset+0x1f0>
    80201290:	00e502a3          	sb	a4,5(a0)
    80201294:	00700693          	li	a3,7
    80201298:	18d79663          	bne	a5,a3,80201424 <memset+0x1f8>
    8020129c:	00e50323          	sb	a4,6(a0)
    802012a0:	00700593          	li	a1,7
    802012a4:	00871693          	slli	a3,a4,0x8
    802012a8:	01071813          	slli	a6,a4,0x10
    802012ac:	00d766b3          	or	a3,a4,a3
    802012b0:	01871893          	slli	a7,a4,0x18
    802012b4:	0106e6b3          	or	a3,a3,a6
    802012b8:	0116e6b3          	or	a3,a3,a7
    802012bc:	02071813          	slli	a6,a4,0x20
    802012c0:	02871313          	slli	t1,a4,0x28
    802012c4:	0106e6b3          	or	a3,a3,a6
    802012c8:	40f608b3          	sub	a7,a2,a5
    802012cc:	03071813          	slli	a6,a4,0x30
    802012d0:	0066e6b3          	or	a3,a3,t1
    802012d4:	0106e6b3          	or	a3,a3,a6
    802012d8:	03871313          	slli	t1,a4,0x38
    802012dc:	00f507b3          	add	a5,a0,a5
    802012e0:	ff88f813          	andi	a6,a7,-8
    802012e4:	0066e6b3          	or	a3,a3,t1
    802012e8:	00f80833          	add	a6,a6,a5
    802012ec:	00d7b023          	sd	a3,0(a5)
    802012f0:	00878793          	addi	a5,a5,8
    802012f4:	ff079ce3          	bne	a5,a6,802012ec <memset+0xc0>
    802012f8:	ff88f693          	andi	a3,a7,-8
    802012fc:	00d587b3          	add	a5,a1,a3
    80201300:	0ed88863          	beq	a7,a3,802013f0 <memset+0x1c4>
    80201304:	00f506b3          	add	a3,a0,a5
    80201308:	00e68023          	sb	a4,0(a3)
    8020130c:	00178693          	addi	a3,a5,1
    80201310:	0cc6f663          	bgeu	a3,a2,802013dc <memset+0x1b0>
    80201314:	00d506b3          	add	a3,a0,a3
    80201318:	00e68023          	sb	a4,0(a3)
    8020131c:	00278693          	addi	a3,a5,2
    80201320:	0ac6fe63          	bgeu	a3,a2,802013dc <memset+0x1b0>
    80201324:	00d506b3          	add	a3,a0,a3
    80201328:	00e68023          	sb	a4,0(a3)
    8020132c:	00378693          	addi	a3,a5,3
    80201330:	0ac6f663          	bgeu	a3,a2,802013dc <memset+0x1b0>
    80201334:	00d506b3          	add	a3,a0,a3
    80201338:	00e68023          	sb	a4,0(a3)
    8020133c:	00478693          	addi	a3,a5,4
    80201340:	08c6fe63          	bgeu	a3,a2,802013dc <memset+0x1b0>
    80201344:	00d506b3          	add	a3,a0,a3
    80201348:	00e68023          	sb	a4,0(a3)
    8020134c:	00578693          	addi	a3,a5,5
    80201350:	08c6f663          	bgeu	a3,a2,802013dc <memset+0x1b0>
    80201354:	00d506b3          	add	a3,a0,a3
    80201358:	00e68023          	sb	a4,0(a3)
    8020135c:	00678693          	addi	a3,a5,6
    80201360:	06c6fe63          	bgeu	a3,a2,802013dc <memset+0x1b0>
    80201364:	00d506b3          	add	a3,a0,a3
    80201368:	00e68023          	sb	a4,0(a3)
    8020136c:	00778693          	addi	a3,a5,7
    80201370:	06c6f663          	bgeu	a3,a2,802013dc <memset+0x1b0>
    80201374:	00d506b3          	add	a3,a0,a3
    80201378:	00e68023          	sb	a4,0(a3)
    8020137c:	00878693          	addi	a3,a5,8
    80201380:	04c6fe63          	bgeu	a3,a2,802013dc <memset+0x1b0>
    80201384:	00d506b3          	add	a3,a0,a3
    80201388:	00e68023          	sb	a4,0(a3)
    8020138c:	00978693          	addi	a3,a5,9
    80201390:	04c6f663          	bgeu	a3,a2,802013dc <memset+0x1b0>
    80201394:	00d506b3          	add	a3,a0,a3
    80201398:	00e68023          	sb	a4,0(a3)
    8020139c:	00a78693          	addi	a3,a5,10
    802013a0:	02c6fe63          	bgeu	a3,a2,802013dc <memset+0x1b0>
    802013a4:	00d506b3          	add	a3,a0,a3
    802013a8:	00e68023          	sb	a4,0(a3)
    802013ac:	00b78693          	addi	a3,a5,11
    802013b0:	02c6f663          	bgeu	a3,a2,802013dc <memset+0x1b0>
    802013b4:	00d506b3          	add	a3,a0,a3
    802013b8:	00e68023          	sb	a4,0(a3)
    802013bc:	00c78693          	addi	a3,a5,12
    802013c0:	00c6fe63          	bgeu	a3,a2,802013dc <memset+0x1b0>
    802013c4:	00d506b3          	add	a3,a0,a3
    802013c8:	00e68023          	sb	a4,0(a3)
    802013cc:	00d78793          	addi	a5,a5,13
    802013d0:	00c7f663          	bgeu	a5,a2,802013dc <memset+0x1b0>
    802013d4:	00f507b3          	add	a5,a0,a5
    802013d8:	00e78023          	sb	a4,0(a5)
    802013dc:	00008067          	ret
    802013e0:	00b00693          	li	a3,11
    802013e4:	e69ff06f          	j	8020124c <memset+0x20>
    802013e8:	00300593          	li	a1,3
    802013ec:	eb9ff06f          	j	802012a4 <memset+0x78>
    802013f0:	00008067          	ret
    802013f4:	00100593          	li	a1,1
    802013f8:	eadff06f          	j	802012a4 <memset+0x78>
    802013fc:	00000593          	li	a1,0
    80201400:	ea5ff06f          	j	802012a4 <memset+0x78>
    80201404:	00000793          	li	a5,0
    80201408:	efdff06f          	j	80201304 <memset+0xd8>
    8020140c:	00200593          	li	a1,2
    80201410:	e95ff06f          	j	802012a4 <memset+0x78>
    80201414:	00400593          	li	a1,4
    80201418:	e8dff06f          	j	802012a4 <memset+0x78>
    8020141c:	00500593          	li	a1,5
    80201420:	e85ff06f          	j	802012a4 <memset+0x78>
    80201424:	00600593          	li	a1,6
    80201428:	e7dff06f          	j	802012a4 <memset+0x78>
